; Function Attrs: mustprogress uwtable
define hidden void @_ZN4cvc58internal4prop13CadicalSolver10resetTrailEv(ptr nocapture noundef nonnull readonly align 8 dereferenceable(144) %this) unnamed_addr #3 align 2 {
entry:
  %d_propagator = getelementptr inbounds i8, ptr %this, i64 56
  %0 = load ptr, ptr %d_propagator, align 8
  %vtable = load ptr, ptr %0, align 8
  %vfn = getelementptr inbounds i8, ptr %vtable, i64 32
  %1 = load ptr, ptr %vfn, align 8
  tail call void %1(ptr noundef nonnull align 8 dereferenceable(482) %0, i64 noundef 0)
  ret void
}